
relay_Handle.elf:     file format elf32-avr

Sections:
Idx Name          Size      VMA       LMA       File off  Algn
  0 .text         00000440  00000000  00000000  00000094  2**1
                  CONTENTS, ALLOC, LOAD, READONLY, CODE
  1 .data         00000028  00800060  00000440  000004d4  2**0
                  CONTENTS, ALLOC, LOAD, DATA
  2 .bss          00000006  00800088  00800088  000004fc  2**0
                  ALLOC
  3 .comment      00000030  00000000  00000000  000004fc  2**0
                  CONTENTS, READONLY
  4 .debug_aranges 000000a8  00000000  00000000  0000052c  2**0
                  CONTENTS, READONLY, DEBUGGING
  5 .debug_info   00000d6a  00000000  00000000  000005d4  2**0
                  CONTENTS, READONLY, DEBUGGING
  6 .debug_abbrev 000004df  00000000  00000000  0000133e  2**0
                  CONTENTS, READONLY, DEBUGGING
  7 .debug_line   000005d7  00000000  00000000  0000181d  2**0
                  CONTENTS, READONLY, DEBUGGING
  8 .debug_frame  00000120  00000000  00000000  00001df4  2**2
                  CONTENTS, READONLY, DEBUGGING
  9 .debug_str    00000316  00000000  00000000  00001f14  2**0
                  CONTENTS, READONLY, DEBUGGING
 10 .debug_loc    00000416  00000000  00000000  0000222a  2**0
                  CONTENTS, READONLY, DEBUGGING
 11 .debug_ranges 00000078  00000000  00000000  00002640  2**0
                  CONTENTS, READONLY, DEBUGGING

Disassembly of section .text:

00000000 <__vectors>:
   0:	0c 94 2a 00 	jmp	0x54	; 0x54 <__ctors_end>
   4:	0c 94 47 00 	jmp	0x8e	; 0x8e <__bad_interrupt>
   8:	0c 94 47 00 	jmp	0x8e	; 0x8e <__bad_interrupt>
   c:	0c 94 47 00 	jmp	0x8e	; 0x8e <__bad_interrupt>
  10:	0c 94 47 00 	jmp	0x8e	; 0x8e <__bad_interrupt>
  14:	0c 94 47 00 	jmp	0x8e	; 0x8e <__bad_interrupt>
  18:	0c 94 47 00 	jmp	0x8e	; 0x8e <__bad_interrupt>
  1c:	0c 94 47 00 	jmp	0x8e	; 0x8e <__bad_interrupt>
  20:	0c 94 47 00 	jmp	0x8e	; 0x8e <__bad_interrupt>
  24:	0c 94 47 00 	jmp	0x8e	; 0x8e <__bad_interrupt>
  28:	0c 94 47 00 	jmp	0x8e	; 0x8e <__bad_interrupt>
  2c:	0c 94 47 00 	jmp	0x8e	; 0x8e <__bad_interrupt>
  30:	0c 94 47 00 	jmp	0x8e	; 0x8e <__bad_interrupt>
  34:	0c 94 47 00 	jmp	0x8e	; 0x8e <__bad_interrupt>
  38:	0c 94 47 00 	jmp	0x8e	; 0x8e <__bad_interrupt>
  3c:	0c 94 47 00 	jmp	0x8e	; 0x8e <__bad_interrupt>
  40:	0c 94 47 00 	jmp	0x8e	; 0x8e <__bad_interrupt>
  44:	0c 94 47 00 	jmp	0x8e	; 0x8e <__bad_interrupt>
  48:	0c 94 47 00 	jmp	0x8e	; 0x8e <__bad_interrupt>
  4c:	0c 94 47 00 	jmp	0x8e	; 0x8e <__bad_interrupt>
  50:	0c 94 47 00 	jmp	0x8e	; 0x8e <__bad_interrupt>

00000054 <__ctors_end>:
  54:	11 24       	eor	r1, r1
  56:	1f be       	out	0x3f, r1	; 63
  58:	cf e5       	ldi	r28, 0x5F	; 95
  5a:	d4 e0       	ldi	r29, 0x04	; 4
  5c:	de bf       	out	0x3e, r29	; 62
  5e:	cd bf       	out	0x3d, r28	; 61

00000060 <__do_copy_data>:
  60:	10 e0       	ldi	r17, 0x00	; 0
  62:	a0 e6       	ldi	r26, 0x60	; 96
  64:	b0 e0       	ldi	r27, 0x00	; 0
  66:	e0 e4       	ldi	r30, 0x40	; 64
  68:	f4 e0       	ldi	r31, 0x04	; 4
  6a:	02 c0       	rjmp	.+4      	; 0x70 <__do_copy_data+0x10>
  6c:	05 90       	lpm	r0, Z+
  6e:	0d 92       	st	X+, r0
  70:	a8 38       	cpi	r26, 0x88	; 136
  72:	b1 07       	cpc	r27, r17
  74:	d9 f7       	brne	.-10     	; 0x6c <__do_copy_data+0xc>

00000076 <__do_clear_bss>:
  76:	20 e0       	ldi	r18, 0x00	; 0
  78:	a8 e8       	ldi	r26, 0x88	; 136
  7a:	b0 e0       	ldi	r27, 0x00	; 0
  7c:	01 c0       	rjmp	.+2      	; 0x80 <.do_clear_bss_start>

0000007e <.do_clear_bss_loop>:
  7e:	1d 92       	st	X+, r1

00000080 <.do_clear_bss_start>:
  80:	ae 38       	cpi	r26, 0x8E	; 142
  82:	b2 07       	cpc	r27, r18
  84:	e1 f7       	brne	.-8      	; 0x7e <.do_clear_bss_loop>
  86:	0e 94 1e 01 	call	0x23c	; 0x23c <main>
  8a:	0c 94 1e 02 	jmp	0x43c	; 0x43c <_exit>

0000008e <__bad_interrupt>:
  8e:	0c 94 00 00 	jmp	0	; 0x0 <__vectors>

00000092 <send_First_Signal_to_DHT11>:
#include "DHT11.h"

uint8_t data = 0; 

void send_First_Signal_to_DHT11(){
	DDRA |= (1 << PIN_DHT11);
  92:	d3 9a       	sbi	0x1a, 3	; 26
	PORTA &= ~(1 << PIN_DHT11);
  94:	db 98       	cbi	0x1b, 3	; 27
	#else
		//round up by default
		__ticks_dc = (uint32_t)(ceil(fabs(__tmp)));
	#endif

	__builtin_avr_delay_cycles(__ticks_dc);
  96:	8f e3       	ldi	r24, 0x3F	; 63
  98:	9c e9       	ldi	r25, 0x9C	; 156
  9a:	01 97       	sbiw	r24, 0x01	; 1
  9c:	f1 f7       	brne	.-4      	; 0x9a <send_First_Signal_to_DHT11+0x8>
  9e:	00 c0       	rjmp	.+0      	; 0xa0 <send_First_Signal_to_DHT11+0xe>
  a0:	00 00       	nop
	_delay_ms(20);
	PORTA |= (1 << PIN_DHT11);
  a2:	db 9a       	sbi	0x1b, 3	; 27
  a4:	08 95       	ret

000000a6 <receive_Response_from_DHT11>:
}

void receive_Response_from_DHT11(){
	DDRA &= ~(1 << PIN_DHT11);
  a6:	d3 98       	cbi	0x1a, 3	; 26
	while(PINA & (1 << PIN_DHT11));
  a8:	cb 99       	sbic	0x19, 3	; 25
  aa:	fe cf       	rjmp	.-4      	; 0xa8 <receive_Response_from_DHT11+0x2>
	while((PINA & (1 << PIN_DHT11))==0);
  ac:	cb 9b       	sbis	0x19, 3	; 25
  ae:	fe cf       	rjmp	.-4      	; 0xac <receive_Response_from_DHT11+0x6>
	while(PINA & (1 << PIN_DHT11));
  b0:	cb 99       	sbic	0x19, 3	; 25
  b2:	fe cf       	rjmp	.-4      	; 0xb0 <receive_Response_from_DHT11+0xa>
}
  b4:	08 95       	ret

000000b6 <receive_data_from_DHT11>:
// 
uint8_t receive_data_from_DHT11(){
  b6:	88 e0       	ldi	r24, 0x08	; 8
  b8:	90 e0       	ldi	r25, 0x00	; 0
	for(int i = 0; i < 8; i++){
		while((PINA & (1<<PIN_DHT11))==0);
  ba:	cb 9b       	sbis	0x19, 3	; 25
  bc:	fe cf       	rjmp	.-4      	; 0xba <receive_data_from_DHT11+0x4>
	#else
		//round up by default
		__ticks_dc = (uint32_t)(ceil(fabs(__tmp)));
	#endif

	__builtin_avr_delay_cycles(__ticks_dc);
  be:	20 e5       	ldi	r18, 0x50	; 80
  c0:	2a 95       	dec	r18
  c2:	f1 f7       	brne	.-4      	; 0xc0 <receive_data_from_DHT11+0xa>
		_delay_us(30);
		if(PINA & (1<<PIN_DHT11))/* if high pulse is greater than 30ms */
  c4:	cb 9b       	sbis	0x19, 3	; 25
  c6:	07 c0       	rjmp	.+14     	; 0xd6 <receive_data_from_DHT11+0x20>
		data = (data<<1)|(0x01);	/* then its logic HIGH */
  c8:	20 91 88 00 	lds	r18, 0x0088
  cc:	22 0f       	add	r18, r18
  ce:	21 60       	ori	r18, 0x01	; 1
  d0:	20 93 88 00 	sts	0x0088, r18
  d4:	05 c0       	rjmp	.+10     	; 0xe0 <receive_data_from_DHT11+0x2a>
		else			/* otherwise its logic LOW */
		data = (data<<1);
  d6:	20 91 88 00 	lds	r18, 0x0088
  da:	22 0f       	add	r18, r18
  dc:	20 93 88 00 	sts	0x0088, r18
		while(PINA & (1<<PIN_DHT11));
  e0:	cb 99       	sbic	0x19, 3	; 25
  e2:	fe cf       	rjmp	.-4      	; 0xe0 <receive_data_from_DHT11+0x2a>
  e4:	01 97       	sbiw	r24, 0x01	; 1
	while((PINA & (1 << PIN_DHT11))==0);
	while(PINA & (1 << PIN_DHT11));
}
// 
uint8_t receive_data_from_DHT11(){
	for(int i = 0; i < 8; i++){
  e6:	00 97       	sbiw	r24, 0x00	; 0
  e8:	41 f7       	brne	.-48     	; 0xba <receive_data_from_DHT11+0x4>
		else			/* otherwise its logic LOW */
		data = (data<<1);
		while(PINA & (1<<PIN_DHT11));
	}
	return data;
}
  ea:	80 91 88 00 	lds	r24, 0x0088
  ee:	08 95       	ret

000000f0 <sendhalfbyte>:
#include "LCD1602.h"

void sendhalfbyte(unsigned char c)
{
	c<<=4;
	e1; //???????? ????? ?
  f0:	93 9a       	sbi	0x12, 3	; 18
  f2:	95 e8       	ldi	r25, 0x85	; 133
  f4:	9a 95       	dec	r25
  f6:	f1 f7       	brne	.-4      	; 0xf4 <sendhalfbyte+0x4>
  f8:	00 00       	nop
	_delay_us(50);
	PORTD&=0b00001111; //??????? ?????????? ?? ?????? DB4-DB7, ????????? ?? ???????
  fa:	92 b3       	in	r25, 0x12	; 18
  fc:	9f 70       	andi	r25, 0x0F	; 15
  fe:	92 bb       	out	0x12, r25	; 18
	PORTD|=c;
 100:	92 b3       	in	r25, 0x12	; 18

#include "LCD1602.h"

void sendhalfbyte(unsigned char c)
{
	c<<=4;
 102:	82 95       	swap	r24
 104:	80 7f       	andi	r24, 0xF0	; 240
	e1; //???????? ????? ?
	_delay_us(50);
	PORTD&=0b00001111; //??????? ?????????? ?? ?????? DB4-DB7, ????????? ?? ???????
	PORTD|=c;
 106:	89 2b       	or	r24, r25
 108:	82 bb       	out	0x12, r24	; 18
	e0; //????????? ????? ?
 10a:	93 98       	cbi	0x12, 3	; 18
 10c:	85 e8       	ldi	r24, 0x85	; 133
 10e:	8a 95       	dec	r24
 110:	f1 f7       	brne	.-4      	; 0x10e <sendhalfbyte+0x1e>
 112:	00 00       	nop
 114:	08 95       	ret

00000116 <sendbyte>:
	_delay_us(50);
}
//----------------------------------------
void sendbyte(unsigned char c, unsigned char mode)
{
 116:	cf 93       	push	r28
 118:	c8 2f       	mov	r28, r24
	if (mode==0) rs0;
 11a:	61 11       	cpse	r22, r1
 11c:	02 c0       	rjmp	.+4      	; 0x122 <sendbyte+0xc>
 11e:	92 98       	cbi	0x12, 2	; 18
 120:	01 c0       	rjmp	.+2      	; 0x124 <sendbyte+0xe>
	else         rs1;
 122:	92 9a       	sbi	0x12, 2	; 18
	unsigned char hc=0;
	hc=c>>4;
	sendhalfbyte(hc); sendhalfbyte(c);
 124:	8c 2f       	mov	r24, r28
 126:	82 95       	swap	r24
 128:	8f 70       	andi	r24, 0x0F	; 15
 12a:	0e 94 78 00 	call	0xf0	; 0xf0 <sendhalfbyte>
 12e:	8c 2f       	mov	r24, r28
 130:	0e 94 78 00 	call	0xf0	; 0xf0 <sendhalfbyte>
}
 134:	cf 91       	pop	r28
 136:	08 95       	ret

00000138 <sendchar>:
//----------------------------------------
void sendchar(unsigned char c)
{
	sendbyte(c,1);
 138:	61 e0       	ldi	r22, 0x01	; 1
 13a:	0e 94 8b 00 	call	0x116	; 0x116 <sendbyte>
 13e:	08 95       	ret

00000140 <setpos>:
}
//----------------------------------------
void setpos(unsigned char x, unsigned y)
{
	char adress;
	adress=(0x40*y+x)|0b10000000;
 140:	90 e4       	ldi	r25, 0x40	; 64
 142:	69 9f       	mul	r22, r25
 144:	80 0d       	add	r24, r0
 146:	11 24       	eor	r1, r1
	sendbyte(adress, 0);
 148:	60 e0       	ldi	r22, 0x00	; 0
 14a:	80 68       	ori	r24, 0x80	; 128
 14c:	0e 94 8b 00 	call	0x116	; 0x116 <sendbyte>
 150:	08 95       	ret

00000152 <LCD_ini>:
	#else
		//round up by default
		__ticks_dc = (uint32_t)(ceil(fabs(__tmp)));
	#endif

	__builtin_avr_delay_cycles(__ticks_dc);
 152:	8f e2       	ldi	r24, 0x2F	; 47
 154:	95 e7       	ldi	r25, 0x75	; 117
 156:	01 97       	sbiw	r24, 0x01	; 1
 158:	f1 f7       	brne	.-4      	; 0x156 <LCD_ini+0x4>
 15a:	00 c0       	rjmp	.+0      	; 0x15c <LCD_ini+0xa>
 15c:	00 00       	nop
}
//----------------------------------------
void LCD_ini(void)
{
	_delay_ms(15); //???? 15 ?? (??? 45)
	sendhalfbyte(0b00000011);
 15e:	83 e0       	ldi	r24, 0x03	; 3
 160:	0e 94 78 00 	call	0xf0	; 0xf0 <sendhalfbyte>
 164:	8f e3       	ldi	r24, 0x3F	; 63
 166:	9f e1       	ldi	r25, 0x1F	; 31
 168:	01 97       	sbiw	r24, 0x01	; 1
 16a:	f1 f7       	brne	.-4      	; 0x168 <LCD_ini+0x16>
 16c:	00 c0       	rjmp	.+0      	; 0x16e <LCD_ini+0x1c>
 16e:	00 00       	nop
	_delay_ms(4);
	sendhalfbyte(0b00000011);
 170:	83 e0       	ldi	r24, 0x03	; 3
 172:	0e 94 78 00 	call	0xf0	; 0xf0 <sendhalfbyte>
	#else
		//round up by default
		__ticks_dc = (uint32_t)(ceil(fabs(__tmp)));
	#endif

	__builtin_avr_delay_cycles(__ticks_dc);
 176:	87 ec       	ldi	r24, 0xC7	; 199
 178:	90 e0       	ldi	r25, 0x00	; 0
 17a:	01 97       	sbiw	r24, 0x01	; 1
 17c:	f1 f7       	brne	.-4      	; 0x17a <LCD_ini+0x28>
 17e:	00 c0       	rjmp	.+0      	; 0x180 <LCD_ini+0x2e>
 180:	00 00       	nop
	_delay_us(100);
	sendhalfbyte(0b00000011);
 182:	83 e0       	ldi	r24, 0x03	; 3
 184:	0e 94 78 00 	call	0xf0	; 0xf0 <sendhalfbyte>
	#else
		//round up by default
		__ticks_dc = (uint32_t)(ceil(fabs(__tmp)));
	#endif

	__builtin_avr_delay_cycles(__ticks_dc);
 188:	8f ec       	ldi	r24, 0xCF	; 207
 18a:	97 e0       	ldi	r25, 0x07	; 7
 18c:	01 97       	sbiw	r24, 0x01	; 1
 18e:	f1 f7       	brne	.-4      	; 0x18c <LCD_ini+0x3a>
 190:	00 c0       	rjmp	.+0      	; 0x192 <LCD_ini+0x40>
 192:	00 00       	nop
	_delay_ms(1);
	sendhalfbyte(0b00000010);
 194:	82 e0       	ldi	r24, 0x02	; 2
 196:	0e 94 78 00 	call	0xf0	; 0xf0 <sendhalfbyte>
 19a:	8f ec       	ldi	r24, 0xCF	; 207
 19c:	97 e0       	ldi	r25, 0x07	; 7
 19e:	01 97       	sbiw	r24, 0x01	; 1
 1a0:	f1 f7       	brne	.-4      	; 0x19e <LCD_ini+0x4c>
 1a2:	00 c0       	rjmp	.+0      	; 0x1a4 <LCD_ini+0x52>
 1a4:	00 00       	nop
	_delay_ms(1);
	sendbyte(0b00101000, 0); //4???-????? (DL=0) ? 2 ????? (N=1)
 1a6:	60 e0       	ldi	r22, 0x00	; 0
 1a8:	88 e2       	ldi	r24, 0x28	; 40
 1aa:	0e 94 8b 00 	call	0x116	; 0x116 <sendbyte>
 1ae:	8f ec       	ldi	r24, 0xCF	; 207
 1b0:	97 e0       	ldi	r25, 0x07	; 7
 1b2:	01 97       	sbiw	r24, 0x01	; 1
 1b4:	f1 f7       	brne	.-4      	; 0x1b2 <LCD_ini+0x60>
 1b6:	00 c0       	rjmp	.+0      	; 0x1b8 <LCD_ini+0x66>
 1b8:	00 00       	nop
	_delay_ms(1);
	sendbyte(0b00001100, 0); //???????? ??????????? ?? ??????? (D=1), ??????? ??????? ?? ???????? (C=0, B=0)
 1ba:	60 e0       	ldi	r22, 0x00	; 0
 1bc:	8c e0       	ldi	r24, 0x0C	; 12
 1be:	0e 94 8b 00 	call	0x116	; 0x116 <sendbyte>
 1c2:	8f ec       	ldi	r24, 0xCF	; 207
 1c4:	97 e0       	ldi	r25, 0x07	; 7
 1c6:	01 97       	sbiw	r24, 0x01	; 1
 1c8:	f1 f7       	brne	.-4      	; 0x1c6 <LCD_ini+0x74>
 1ca:	00 c0       	rjmp	.+0      	; 0x1cc <LCD_ini+0x7a>
 1cc:	00 00       	nop
	_delay_ms(1);
	sendbyte(0b00000110, 0); //?????? (???? ?? ? ??? ? ?????????) ????? ????????? ?????
 1ce:	60 e0       	ldi	r22, 0x00	; 0
 1d0:	86 e0       	ldi	r24, 0x06	; 6
 1d2:	0e 94 8b 00 	call	0x116	; 0x116 <sendbyte>
 1d6:	8f ec       	ldi	r24, 0xCF	; 207
 1d8:	97 e0       	ldi	r25, 0x07	; 7
 1da:	01 97       	sbiw	r24, 0x01	; 1
 1dc:	f1 f7       	brne	.-4      	; 0x1da <LCD_ini+0x88>
 1de:	00 c0       	rjmp	.+0      	; 0x1e0 <LCD_ini+0x8e>
 1e0:	00 00       	nop
 1e2:	08 95       	ret

000001e4 <clearlcd>:
	_delay_ms(1);
}
//----------------------------------------
void clearlcd()
{
	sendbyte(0b00000001, 0);
 1e4:	60 e0       	ldi	r22, 0x00	; 0
 1e6:	81 e0       	ldi	r24, 0x01	; 1
 1e8:	0e 94 8b 00 	call	0x116	; 0x116 <sendbyte>
	#else
		//round up by default
		__ticks_dc = (uint32_t)(ceil(fabs(__tmp)));
	#endif

	__builtin_avr_delay_cycles(__ticks_dc);
 1ec:	87 eb       	ldi	r24, 0xB7	; 183
 1ee:	9b e0       	ldi	r25, 0x0B	; 11
 1f0:	01 97       	sbiw	r24, 0x01	; 1
 1f2:	f1 f7       	brne	.-4      	; 0x1f0 <clearlcd+0xc>
 1f4:	00 c0       	rjmp	.+0      	; 0x1f6 <clearlcd+0x12>
 1f6:	00 00       	nop
 1f8:	08 95       	ret

000001fa <str_lcd>:
	_delay_us(1500);
}
//----------------------------------------
void str_lcd (char str1[])
{
 1fa:	cf 93       	push	r28
 1fc:	df 93       	push	r29
 1fe:	ec 01       	movw	r28, r24
	wchar_t n;
	for(n=0;str1[n]!='\0';n++)
 200:	88 81       	ld	r24, Y
 202:	88 23       	and	r24, r24
 204:	31 f0       	breq	.+12     	; 0x212 <str_lcd+0x18>
 206:	21 96       	adiw	r28, 0x01	; 1
	sendchar(str1[n]);
 208:	0e 94 9c 00 	call	0x138	; 0x138 <sendchar>
}
//----------------------------------------
void str_lcd (char str1[])
{
	wchar_t n;
	for(n=0;str1[n]!='\0';n++)
 20c:	89 91       	ld	r24, Y+
 20e:	81 11       	cpse	r24, r1
 210:	fb cf       	rjmp	.-10     	; 0x208 <str_lcd+0xe>
	sendchar(str1[n]);
}
 212:	df 91       	pop	r29
 214:	cf 91       	pop	r28
 216:	08 95       	ret

00000218 <initialize_PORT>:
		}
	}
}

void initialize_PORT (){
	DDRA |= (1 << PIN_LAMP) | (1 << PIN_RELAY) | (1 << PIN_SPEAKER);
 218:	8a b3       	in	r24, 0x1a	; 26
 21a:	87 60       	ori	r24, 0x07	; 7
 21c:	8a bb       	out	0x1a, r24	; 26
	DDRA &= ~((1 << PIN_RESET)|(1 << PIN_INCREASE)|(1 << PIN_REDUCE)|(1 << PIN_SET));
 21e:	8a b3       	in	r24, 0x1a	; 26
 220:	8f 70       	andi	r24, 0x0F	; 15
 222:	8a bb       	out	0x1a, r24	; 26
	DDRD |= (1 <<0)|(1<<1)|(1 << 2)|(1<<3)|(1<<4)|(1<<5)|(1<<6)|(1<<7);
 224:	81 b3       	in	r24, 0x11	; 17
 226:	8f ef       	ldi	r24, 0xFF	; 255
 228:	81 bb       	out	0x11, r24	; 17
	
	PORTA |= ((1 << PIN_RESET)|(1 << PIN_INCREASE)|(1 << PIN_REDUCE)|(1 << PIN_SET));
 22a:	8b b3       	in	r24, 0x1b	; 27
 22c:	80 6f       	ori	r24, 0xF0	; 240
 22e:	8b bb       	out	0x1b, r24	; 27
	PORTA &= ~((1 << PIN_LAMP) | (1 << PIN_RELAY) | (1 << PIN_SPEAKER));
 230:	8b b3       	in	r24, 0x1b	; 27
 232:	88 7f       	andi	r24, 0xF8	; 248
 234:	8b bb       	out	0x1b, r24	; 27
	PORTD &= ~((1 <<0)|(1<<1)|(1 << 2)|(1<<3)|(1<<4)|(1<<5)|(1<<6)|(1<<7));
 236:	82 b3       	in	r24, 0x12	; 18
 238:	12 ba       	out	0x12, r1	; 18
 23a:	08 95       	ret

0000023c <main>:
uint8_t insert_temp_for_lamp = 27,
		insert_temp_for_speaker = 30,
		insert_temp_for_relay = 33;

int main(void)
{
 23c:	cf 93       	push	r28
 23e:	df 93       	push	r29
 240:	cd b7       	in	r28, 0x3d	; 61
 242:	de b7       	in	r29, 0x3e	; 62
 244:	64 97       	sbiw	r28, 0x14	; 20
 246:	0f b6       	in	r0, 0x3f	; 63
 248:	f8 94       	cli
 24a:	de bf       	out	0x3e, r29	; 62
 24c:	0f be       	out	0x3f, r0	; 63
 24e:	cd bf       	out	0x3d, r28	; 61
	char char_humidity[10], char_temperature[10];
	initialize_PORT();
 250:	0e 94 0c 01 	call	0x218	; 0x218 <initialize_PORT>
	
	LCD_ini();
 254:	0e 94 a9 00 	call	0x152	; 0x152 <LCD_ini>
			_delay_ms(100);
			} else{
			PORTA &= ~(1 << PIN_RELAY);
		}
		if(!(PINA & (1 << PIN_RESET))){
			insert_temp_for_lamp = 27;
 258:	0f 2e       	mov	r0, r31
 25a:	fb e1       	ldi	r31, 0x1B	; 27
 25c:	ff 2e       	mov	r15, r31
 25e:	f0 2d       	mov	r31, r0
			insert_temp_for_speaker = 30;
 260:	0e e1       	ldi	r16, 0x1E	; 30
			insert_temp_for_relay = 33;
 262:	11 e2       	ldi	r17, 0x21	; 33
	initialize_PORT();
	
	LCD_ini();
	
	while(1){
		send_First_Signal_to_DHT11();
 264:	0e 94 49 00 	call	0x92	; 0x92 <send_First_Signal_to_DHT11>
		receive_Response_from_DHT11();
 268:	0e 94 53 00 	call	0xa6	; 0xa6 <receive_Response_from_DHT11>

		I_RH = receive_data_from_DHT11();// humidity
 26c:	0e 94 5b 00 	call	0xb6	; 0xb6 <receive_data_from_DHT11>
 270:	80 93 8b 00 	sts	0x008B, r24
		D_RH = receive_data_from_DHT11();
 274:	0e 94 5b 00 	call	0xb6	; 0xb6 <receive_data_from_DHT11>
 278:	80 93 89 00 	sts	0x0089, r24
		I_Temp = receive_data_from_DHT11();// temperature
 27c:	0e 94 5b 00 	call	0xb6	; 0xb6 <receive_data_from_DHT11>
 280:	80 93 8a 00 	sts	0x008A, r24
		D_Temp = receive_data_from_DHT11();
 284:	0e 94 5b 00 	call	0xb6	; 0xb6 <receive_data_from_DHT11>
 288:	80 93 8c 00 	sts	0x008C, r24
		checkSum = receive_data_from_DHT11();
 28c:	0e 94 5b 00 	call	0xb6	; 0xb6 <receive_data_from_DHT11>
 290:	80 93 8d 00 	sts	0x008D, r24
		
		if((I_RH + D_RH + I_Temp + D_Temp) != checkSum){
 294:	20 91 8b 00 	lds	r18, 0x008B
 298:	30 e0       	ldi	r19, 0x00	; 0
 29a:	90 91 89 00 	lds	r25, 0x0089
 29e:	a9 01       	movw	r20, r18
 2a0:	49 0f       	add	r20, r25
 2a2:	51 1d       	adc	r21, r1
 2a4:	90 91 8a 00 	lds	r25, 0x008A
 2a8:	49 0f       	add	r20, r25
 2aa:	51 1d       	adc	r21, r1
 2ac:	90 91 8c 00 	lds	r25, 0x008C
 2b0:	49 0f       	add	r20, r25
 2b2:	51 1d       	adc	r21, r1
 2b4:	90 e0       	ldi	r25, 0x00	; 0
 2b6:	48 17       	cp	r20, r24
 2b8:	59 07       	cpc	r21, r25
 2ba:	39 f0       	breq	.+14     	; 0x2ca <main+0x8e>
			clearlcd();
 2bc:	0e 94 f2 00 	call	0x1e4	; 0x1e4 <clearlcd>
			str_lcd("Error!!!");
 2c0:	83 e6       	ldi	r24, 0x63	; 99
 2c2:	90 e0       	ldi	r25, 0x00	; 0
 2c4:	0e 94 fd 00 	call	0x1fa	; 0x1fa <str_lcd>
 2c8:	3c c0       	rjmp	.+120    	; 0x342 <main+0x106>
    } else if (__radix < 2 || __radix > 36) {
	*__s = 0;
	return __s;
    } else {
	extern char *__itoa_ncheck (int, char *, unsigned char);
	return __itoa_ncheck (__val, __s, __radix);
 2ca:	4a e0       	ldi	r20, 0x0A	; 10
 2cc:	be 01       	movw	r22, r28
 2ce:	6f 5f       	subi	r22, 0xFF	; 255
 2d0:	7f 4f       	sbci	r23, 0xFF	; 255
 2d2:	c9 01       	movw	r24, r18
 2d4:	0e 94 e9 01 	call	0x3d2	; 0x3d2 <__itoa_ncheck>
		}
		else{
			itoa(I_RH, char_humidity, 10);
			itoa(I_Temp, char_temperature, 10);
 2d8:	80 91 8a 00 	lds	r24, 0x008A
 2dc:	4a e0       	ldi	r20, 0x0A	; 10
 2de:	be 01       	movw	r22, r28
 2e0:	65 5f       	subi	r22, 0xF5	; 245
 2e2:	7f 4f       	sbci	r23, 0xFF	; 255
 2e4:	90 e0       	ldi	r25, 0x00	; 0
 2e6:	0e 94 e9 01 	call	0x3d2	; 0x3d2 <__itoa_ncheck>
			setpos(0,0);
 2ea:	60 e0       	ldi	r22, 0x00	; 0
 2ec:	70 e0       	ldi	r23, 0x00	; 0
 2ee:	80 e0       	ldi	r24, 0x00	; 0
 2f0:	0e 94 a0 00 	call	0x140	; 0x140 <setpos>
			str_lcd("Temperature:");
 2f4:	8c e6       	ldi	r24, 0x6C	; 108
 2f6:	90 e0       	ldi	r25, 0x00	; 0
 2f8:	0e 94 fd 00 	call	0x1fa	; 0x1fa <str_lcd>
			setpos(12,0);
 2fc:	60 e0       	ldi	r22, 0x00	; 0
 2fe:	70 e0       	ldi	r23, 0x00	; 0
 300:	8c e0       	ldi	r24, 0x0C	; 12
 302:	0e 94 a0 00 	call	0x140	; 0x140 <setpos>
			str_lcd(char_temperature);
 306:	ce 01       	movw	r24, r28
 308:	0b 96       	adiw	r24, 0x0b	; 11
 30a:	0e 94 fd 00 	call	0x1fa	; 0x1fa <str_lcd>
			str_lcd("'C");
 30e:	89 e7       	ldi	r24, 0x79	; 121
 310:	90 e0       	ldi	r25, 0x00	; 0
 312:	0e 94 fd 00 	call	0x1fa	; 0x1fa <str_lcd>
			
			setpos(1,1);
 316:	61 e0       	ldi	r22, 0x01	; 1
 318:	70 e0       	ldi	r23, 0x00	; 0
 31a:	81 e0       	ldi	r24, 0x01	; 1
 31c:	0e 94 a0 00 	call	0x140	; 0x140 <setpos>
			str_lcd("Humidity:");
 320:	8c e7       	ldi	r24, 0x7C	; 124
 322:	90 e0       	ldi	r25, 0x00	; 0
 324:	0e 94 fd 00 	call	0x1fa	; 0x1fa <str_lcd>
			setpos(11,1);
 328:	61 e0       	ldi	r22, 0x01	; 1
 32a:	70 e0       	ldi	r23, 0x00	; 0
 32c:	8b e0       	ldi	r24, 0x0B	; 11
 32e:	0e 94 a0 00 	call	0x140	; 0x140 <setpos>
			str_lcd(char_humidity);
 332:	ce 01       	movw	r24, r28
 334:	01 96       	adiw	r24, 0x01	; 1
 336:	0e 94 fd 00 	call	0x1fa	; 0x1fa <str_lcd>
			str_lcd("%");
 33a:	86 e8       	ldi	r24, 0x86	; 134
 33c:	90 e0       	ldi	r25, 0x00	; 0
 33e:	0e 94 fd 00 	call	0x1fa	; 0x1fa <str_lcd>
		}
		if(I_Temp > insert_temp_for_lamp){
 342:	90 91 8a 00 	lds	r25, 0x008A
 346:	80 91 62 00 	lds	r24, 0x0062
 34a:	89 17       	cp	r24, r25
 34c:	a0 f4       	brcc	.+40     	; 0x376 <main+0x13a>
			PORTA |= (1 << PIN_LAMP);
 34e:	d8 9a       	sbi	0x1b, 0	; 27
	#else
		//round up by default
		__ticks_dc = (uint32_t)(ceil(fabs(__tmp)));
	#endif

	__builtin_avr_delay_cycles(__ticks_dc);
 350:	2f ef       	ldi	r18, 0xFF	; 255
 352:	82 e5       	ldi	r24, 0x52	; 82
 354:	97 e0       	ldi	r25, 0x07	; 7
 356:	21 50       	subi	r18, 0x01	; 1
 358:	80 40       	sbci	r24, 0x00	; 0
 35a:	90 40       	sbci	r25, 0x00	; 0
 35c:	e1 f7       	brne	.-8      	; 0x356 <main+0x11a>
 35e:	00 c0       	rjmp	.+0      	; 0x360 <main+0x124>
 360:	00 00       	nop
			_delay_ms(300);
			PORTA &= ~(1 << PIN_LAMP);
 362:	d8 98       	cbi	0x1b, 0	; 27
 364:	2f ef       	ldi	r18, 0xFF	; 255
 366:	82 e5       	ldi	r24, 0x52	; 82
 368:	97 e0       	ldi	r25, 0x07	; 7
 36a:	21 50       	subi	r18, 0x01	; 1
 36c:	80 40       	sbci	r24, 0x00	; 0
 36e:	90 40       	sbci	r25, 0x00	; 0
 370:	e1 f7       	brne	.-8      	; 0x36a <main+0x12e>
 372:	00 c0       	rjmp	.+0      	; 0x374 <main+0x138>
 374:	00 00       	nop
			_delay_ms(300);
		}
		if(I_Temp > insert_temp_for_speaker){
 376:	90 91 8a 00 	lds	r25, 0x008A
 37a:	80 91 61 00 	lds	r24, 0x0061
 37e:	89 17       	cp	r24, r25
 380:	58 f4       	brcc	.+22     	; 0x398 <main+0x15c>
			PORTA |= (1 << PIN_SPEAKER);
 382:	da 9a       	sbi	0x1b, 2	; 27
 384:	2f ef       	ldi	r18, 0xFF	; 255
 386:	80 e7       	ldi	r24, 0x70	; 112
 388:	92 e0       	ldi	r25, 0x02	; 2
 38a:	21 50       	subi	r18, 0x01	; 1
 38c:	80 40       	sbci	r24, 0x00	; 0
 38e:	90 40       	sbci	r25, 0x00	; 0
 390:	e1 f7       	brne	.-8      	; 0x38a <main+0x14e>
 392:	00 c0       	rjmp	.+0      	; 0x394 <main+0x158>
 394:	00 00       	nop
 396:	01 c0       	rjmp	.+2      	; 0x39a <main+0x15e>
			_delay_ms(100);
			} else{
			PORTA &= ~(1 << PIN_SPEAKER);
 398:	da 98       	cbi	0x1b, 2	; 27
		}
		
		if(I_Temp > insert_temp_for_relay){
 39a:	90 91 8a 00 	lds	r25, 0x008A
 39e:	80 91 60 00 	lds	r24, 0x0060
 3a2:	89 17       	cp	r24, r25
 3a4:	58 f4       	brcc	.+22     	; 0x3bc <main+0x180>
			PORTA |= (1 << PIN_RELAY);
 3a6:	d9 9a       	sbi	0x1b, 1	; 27
 3a8:	2f ef       	ldi	r18, 0xFF	; 255
 3aa:	80 e7       	ldi	r24, 0x70	; 112
 3ac:	92 e0       	ldi	r25, 0x02	; 2
 3ae:	21 50       	subi	r18, 0x01	; 1
 3b0:	80 40       	sbci	r24, 0x00	; 0
 3b2:	90 40       	sbci	r25, 0x00	; 0
 3b4:	e1 f7       	brne	.-8      	; 0x3ae <main+0x172>
 3b6:	00 c0       	rjmp	.+0      	; 0x3b8 <main+0x17c>
 3b8:	00 00       	nop
 3ba:	01 c0       	rjmp	.+2      	; 0x3be <main+0x182>
			_delay_ms(100);
			} else{
			PORTA &= ~(1 << PIN_RELAY);
 3bc:	d9 98       	cbi	0x1b, 1	; 27
		}
		if(!(PINA & (1 << PIN_RESET))){
 3be:	cc 99       	sbic	0x19, 4	; 25
 3c0:	51 cf       	rjmp	.-350    	; 0x264 <main+0x28>
			insert_temp_for_lamp = 27;
 3c2:	f0 92 62 00 	sts	0x0062, r15
			insert_temp_for_speaker = 30;
 3c6:	00 93 61 00 	sts	0x0061, r16
			insert_temp_for_relay = 33;
 3ca:	10 93 60 00 	sts	0x0060, r17
			PORTD |= (1 << 0);
 3ce:	90 9a       	sbi	0x12, 0	; 18
 3d0:	49 cf       	rjmp	.-366    	; 0x264 <main+0x28>

000003d2 <__itoa_ncheck>:
 3d2:	bb 27       	eor	r27, r27
 3d4:	4a 30       	cpi	r20, 0x0A	; 10
 3d6:	31 f4       	brne	.+12     	; 0x3e4 <__itoa_ncheck+0x12>
 3d8:	99 23       	and	r25, r25
 3da:	22 f4       	brpl	.+8      	; 0x3e4 <__itoa_ncheck+0x12>
 3dc:	bd e2       	ldi	r27, 0x2D	; 45
 3de:	90 95       	com	r25
 3e0:	81 95       	neg	r24
 3e2:	9f 4f       	sbci	r25, 0xFF	; 255
 3e4:	0c 94 f5 01 	jmp	0x3ea	; 0x3ea <__utoa_common>

000003e8 <__utoa_ncheck>:
 3e8:	bb 27       	eor	r27, r27

000003ea <__utoa_common>:
 3ea:	fb 01       	movw	r30, r22
 3ec:	55 27       	eor	r21, r21
 3ee:	aa 27       	eor	r26, r26
 3f0:	88 0f       	add	r24, r24
 3f2:	99 1f       	adc	r25, r25
 3f4:	aa 1f       	adc	r26, r26
 3f6:	a4 17       	cp	r26, r20
 3f8:	10 f0       	brcs	.+4      	; 0x3fe <__utoa_common+0x14>
 3fa:	a4 1b       	sub	r26, r20
 3fc:	83 95       	inc	r24
 3fe:	50 51       	subi	r21, 0x10	; 16
 400:	b9 f7       	brne	.-18     	; 0x3f0 <__utoa_common+0x6>
 402:	a0 5d       	subi	r26, 0xD0	; 208
 404:	aa 33       	cpi	r26, 0x3A	; 58
 406:	08 f0       	brcs	.+2      	; 0x40a <__utoa_common+0x20>
 408:	a9 5d       	subi	r26, 0xD9	; 217
 40a:	a1 93       	st	Z+, r26
 40c:	00 97       	sbiw	r24, 0x00	; 0
 40e:	79 f7       	brne	.-34     	; 0x3ee <__utoa_common+0x4>
 410:	b1 11       	cpse	r27, r1
 412:	b1 93       	st	Z+, r27
 414:	11 92       	st	Z+, r1
 416:	cb 01       	movw	r24, r22
 418:	0c 94 0e 02 	jmp	0x41c	; 0x41c <strrev>

0000041c <strrev>:
 41c:	dc 01       	movw	r26, r24
 41e:	fc 01       	movw	r30, r24
 420:	67 2f       	mov	r22, r23
 422:	71 91       	ld	r23, Z+
 424:	77 23       	and	r23, r23
 426:	e1 f7       	brne	.-8      	; 0x420 <strrev+0x4>
 428:	32 97       	sbiw	r30, 0x02	; 2
 42a:	04 c0       	rjmp	.+8      	; 0x434 <strrev+0x18>
 42c:	7c 91       	ld	r23, X
 42e:	6d 93       	st	X+, r22
 430:	70 83       	st	Z, r23
 432:	62 91       	ld	r22, -Z
 434:	ae 17       	cp	r26, r30
 436:	bf 07       	cpc	r27, r31
 438:	c8 f3       	brcs	.-14     	; 0x42c <strrev+0x10>
 43a:	08 95       	ret

0000043c <_exit>:
 43c:	f8 94       	cli

0000043e <__stop_program>:
 43e:	ff cf       	rjmp	.-2      	; 0x43e <__stop_program>
